target datalayout = "e-m:e-p270:32:32-p271:32:32-p272:64:64-i64:64-i128:128-f80:128-n8:16:32:64-S128"
target triple = "x86_64-pc-linux-gnu"

%struct.prov_aes_hmac_sha_ctx_st = type { %struct.prov_cipher_ctx_st, %struct.aes_key_st, i64, %union.anon.0, ptr, i32, i32, i64, i64, i64 }
%struct.prov_cipher_ctx_st = type { [16 x i8], [16 x i8], [16 x i8], ptr, %union.anon, i32, i64, i64, i64, i64, i32, i8, i32, ptr, i32, i64, i32, i64, i32, ptr, ptr, ptr }
%union.anon = type { ptr }
%struct.aes_key_st = type { [60 x i32], i32 }
%union.anon.0 = type { i32, [12 x i8] }

@.str = private unnamed_addr constant [57 x i8] c"assertion failed: ctx->multiblock_max_send_fragment != 0\00", align 1
@.str.1 = private unnamed_addr constant [77 x i8] c"../openssl/providers/implementations/ciphers/cipher_aes_cbc_hmac_sha256_hw.c\00", align 1

; Function Attrs: nounwind uwtable
define internal i32 @aesni_cbc_hmac_sha256_tls1_multiblock_max_bufsize(ptr noundef %0) #0 {
  %2 = alloca ptr, align 8
  %3 = alloca ptr, align 8
  store ptr %0, ptr %2, align 8, !tbaa !37
  call void @llvm.lifetime.start.p0(i64 8, ptr %3) #7
  %4 = load ptr, ptr %2, align 8, !tbaa !37
  store ptr %4, ptr %3, align 8, !tbaa !14
  %5 = load ptr, ptr %3, align 8, !tbaa !14
  %6 = getelementptr inbounds nuw %struct.prov_aes_hmac_sha_ctx_st, ptr %5, i32 0, i32 7
  %7 = load i64, ptr %6, align 8, !tbaa !53
  %8 = icmp ne i64 %7, 0
  br i1 %8, label %9, label %10

9:                                                ; preds = %1
  br label %12

10:                                               ; preds = %1
  call void @OPENSSL_die(ptr noundef @.str, ptr noundef @.str.1, i32 noundef 760) #9
  unreachable

11:                                               ; No predecessors!
  br label %12

12:                                               ; preds = %11, %9
  %13 = load ptr, ptr %3, align 8, !tbaa !14
  %14 = getelementptr inbounds nuw %struct.prov_aes_hmac_sha_ctx_st, ptr %13, i32 0, i32 7
  %15 = load i64, ptr %14, align 8, !tbaa !53
  %16 = trunc i64 %15 to i32
  %17 = add nsw i32 %16, 32
  %18 = add nsw i32 %17, 16
  %19 = and i32 %18, -16
  %20 = add nsw i32 21, %19
  call void @llvm.lifetime.end.p0(i64 8, ptr %3) #7
  ret i32 %20
}