; Function Attrs: nounwind uwtable
define internal range(i32 -2147483579, -2147483648) i32 @aesni_cbc_hmac_sha256_tls1_multiblock_max_bufsize(ptr noundef readonly captures(none) %0) #0 {
  %2 = getelementptr inbounds nuw i8, ptr %0, i64 480
  %3 = load i64, ptr %2, align 8, !tbaa !46
  %.not = icmp eq i64 %3, 0
  br i1 %.not, label %4, label %5

4:                                                ; preds = %1
  tail call void @OPENSSL_die(ptr noundef nonnull @.str, ptr noundef nonnull @.str.1, i32 noundef 760) #10
  unreachable

5:                                                ; preds = %1
  %6 = trunc i64 %3 to i32
  %7 = and i32 %6, -16
  %8 = add nsw i32 %7, 69
  ret i32 %8
}